target datalayout = "e-m:e-p270:32:32-p271:32:32-p272:64:64-i64:64-i128:128-f80:128-n8:16:32:64-S128"
target triple = "x86_64-pc-linux-gnu"

@.str.3 = private unnamed_addr constant [2 x i8] c"\0A\00", align 1
@.str.4 = private unnamed_addr constant [34 x i8] c"    splice [options] [selection]\0A\00", align 1
@.str.5 = private unnamed_addr constant [79 x i8] c"This command adds $slice and $concat cells to the design to make the splicing\0A\00", align 1
@.str.6 = private unnamed_addr constant [76 x i8] c"of multi-bit signals explicit. This for example is useful for coarse grain\0A\00", align 1
@.str.7 = private unnamed_addr constant [66 x i8] c"synthesis, where dedicated hardware is needed to splice signals.\0A\00", align 1
@.str.8 = private unnamed_addr constant [18 x i8] c"    -sel_by_cell\0A\00", align 1
@.str.9 = private unnamed_addr constant [76 x i8] c"        only select the cell ports to rewire by the cell. if the selection\0A\00", align 1
@.str.10 = private unnamed_addr constant [74 x i8] c"        contains a cell, than all cell inputs are rewired, if necessary.\0A\00", align 1
@.str.11 = private unnamed_addr constant [18 x i8] c"    -sel_by_wire\0A\00", align 1
@.str.12 = private unnamed_addr constant [76 x i8] c"        only select the cell ports to rewire by the wire. if the selection\0A\00", align 1
@.str.13 = private unnamed_addr constant [77 x i8] c"        contains a wire, than all cell ports driven by this wire are wired,\0A\00", align 1
@.str.14 = private unnamed_addr constant [23 x i8] c"        if necessary.\0A\00", align 1
@.str.15 = private unnamed_addr constant [18 x i8] c"    -sel_any_bit\0A\00", align 1
@.str.16 = private unnamed_addr constant [79 x i8] c"        it is sufficient if the driver of any bit of a cell port is selected.\0A\00", align 1
@.str.17 = private unnamed_addr constant [47 x i8] c"        by default all bits must be selected.\0A\00", align 1
@.str.18 = private unnamed_addr constant [12 x i8] c"    -wires\0A\00", align 1
@.str.19 = private unnamed_addr constant [76 x i8] c"        also add $slice and $concat cells to drive otherwise unused wires.\0A\00", align 1
@.str.20 = private unnamed_addr constant [17 x i8] c"    -no_outputs\0A\00", align 1
@.str.21 = private unnamed_addr constant [48 x i8] c"        do not rewire selected module outputs.\0A\00", align 1
@.str.22 = private unnamed_addr constant [18 x i8] c"    -port <name>\0A\00", align 1
@.str.23 = private unnamed_addr constant [78 x i8] c"        only rewire cell ports with the specified name. can be used multiple\0A\00", align 1
@.str.24 = private unnamed_addr constant [36 x i8] c"        times. implies -no_output.\0A\00", align 1
@.str.25 = private unnamed_addr constant [21 x i8] c"    -no_port <name>\0A\00", align 1
@.str.26 = private unnamed_addr constant [80 x i8] c"        do not rewire cell ports with the specified name. can be used multiple\0A\00", align 1
@.str.27 = private unnamed_addr constant [55 x i8] c"        times. can not be combined with -port <name>.\0A\00", align 1
@.str.28 = private unnamed_addr constant [78 x i8] c"By default selected output wires and all cell ports of selected cells driven\0A\00", align 1
@.str.29 = private unnamed_addr constant [32 x i8] c"by selected wires are rewired.\0A\00", align 1

; Function Attrs: mustprogress uwtable
define internal void @_ZN12_GLOBAL__N_110SplicePass4helpEv(ptr noundef nonnull align 8 dereferenceable(104) %0) unnamed_addr #4 align 2 {
  %2 = alloca ptr, align 8
  store ptr %0, ptr %2, align 8
  call void (ptr, ...) @_ZN5Yosys3logEPKcz(ptr noundef @.str.3)
  call void (ptr, ...) @_ZN5Yosys3logEPKcz(ptr noundef @.str.4)
  call void (ptr, ...) @_ZN5Yosys3logEPKcz(ptr noundef @.str.3)
  call void (ptr, ...) @_ZN5Yosys3logEPKcz(ptr noundef @.str.5)
  call void (ptr, ...) @_ZN5Yosys3logEPKcz(ptr noundef @.str.6)
  call void (ptr, ...) @_ZN5Yosys3logEPKcz(ptr noundef @.str.7)
  call void (ptr, ...) @_ZN5Yosys3logEPKcz(ptr noundef @.str.3)
  call void (ptr, ...) @_ZN5Yosys3logEPKcz(ptr noundef @.str.8)
  call void (ptr, ...) @_ZN5Yosys3logEPKcz(ptr noundef @.str.9)
  call void (ptr, ...) @_ZN5Yosys3logEPKcz(ptr noundef @.str.10)
  call void (ptr, ...) @_ZN5Yosys3logEPKcz(ptr noundef @.str.3)
  call void (ptr, ...) @_ZN5Yosys3logEPKcz(ptr noundef @.str.11)
  call void (ptr, ...) @_ZN5Yosys3logEPKcz(ptr noundef @.str.12)
  call void (ptr, ...) @_ZN5Yosys3logEPKcz(ptr noundef @.str.13)
  call void (ptr, ...) @_ZN5Yosys3logEPKcz(ptr noundef @.str.14)
  call void (ptr, ...) @_ZN5Yosys3logEPKcz(ptr noundef @.str.3)
  call void (ptr, ...) @_ZN5Yosys3logEPKcz(ptr noundef @.str.15)
  call void (ptr, ...) @_ZN5Yosys3logEPKcz(ptr noundef @.str.16)
  call void (ptr, ...) @_ZN5Yosys3logEPKcz(ptr noundef @.str.17)
  call void (ptr, ...) @_ZN5Yosys3logEPKcz(ptr noundef @.str.3)
  call void (ptr, ...) @_ZN5Yosys3logEPKcz(ptr noundef @.str.18)
  call void (ptr, ...) @_ZN5Yosys3logEPKcz(ptr noundef @.str.19)
  call void (ptr, ...) @_ZN5Yosys3logEPKcz(ptr noundef @.str.3)
  call void (ptr, ...) @_ZN5Yosys3logEPKcz(ptr noundef @.str.20)
  call void (ptr, ...) @_ZN5Yosys3logEPKcz(ptr noundef @.str.21)
  call void (ptr, ...) @_ZN5Yosys3logEPKcz(ptr noundef @.str.3)
  call void (ptr, ...) @_ZN5Yosys3logEPKcz(ptr noundef @.str.22)
  call void (ptr, ...) @_ZN5Yosys3logEPKcz(ptr noundef @.str.23)
  call void (ptr, ...) @_ZN5Yosys3logEPKcz(ptr noundef @.str.24)
  call void (ptr, ...) @_ZN5Yosys3logEPKcz(ptr noundef @.str.3)
  call void (ptr, ...) @_ZN5Yosys3logEPKcz(ptr noundef @.str.25)
  call void (ptr, ...) @_ZN5Yosys3logEPKcz(ptr noundef @.str.26)
  call void (ptr, ...) @_ZN5Yosys3logEPKcz(ptr noundef @.str.27)
  call void (ptr, ...) @_ZN5Yosys3logEPKcz(ptr noundef @.str.3)
  call void (ptr, ...) @_ZN5Yosys3logEPKcz(ptr noundef @.str.28)
  call void (ptr, ...) @_ZN5Yosys3logEPKcz(ptr noundef @.str.29)
  call void (ptr, ...) @_ZN5Yosys3logEPKcz(ptr noundef @.str.3)
  ret void
}